target datalayout = "e-m:e-p270:32:32-p271:32:32-p272:64:64-i64:64-i128:128-f80:128-n8:16:32:64-S128"
target triple = "x86_64-pc-linux-gnu"

%"struct.std::_Vector_base.759" = type { %"struct.std::_Vector_base<std::shared_ptr<El>, std::allocator<std::shared_ptr<El>>>::_Vector_impl" }
%"struct.std::_Vector_base<std::shared_ptr<El>, std::allocator<std::shared_ptr<El>>>::_Vector_impl" = type { %"struct.std::_Vector_base<std::shared_ptr<El>, std::allocator<std::shared_ptr<El>>>::_Vector_impl_data" }
%"struct.std::_Vector_base<std::shared_ptr<El>, std::allocator<std::shared_ptr<El>>>::_Vector_impl_data" = type { ptr, ptr, ptr }
%"class.std::shared_ptr" = type { %"class.std::__shared_ptr" }
%"class.std::__shared_ptr" = type { ptr, %"class.std::__shared_count" }
%"class.std::__shared_count" = type { ptr }
%"class.std::_Sp_counted_base" = type { ptr, i32, i32 }
%"class.__gnu_cxx::__normal_iterator.794" = type { ptr }

@__libc_single_threaded = external global i8, align 1

; Function Attrs: alwaysinline mustprogress nounwind optsize uwtable
define linkonce_odr void @_ZN9__gnu_cxx12__atomic_addEPVii(ptr noundef %0, i32 noundef %1) #5 comdat {
  %3 = alloca ptr, align 8
  %4 = alloca i32, align 4
  %5 = alloca i32, align 4
  %6 = alloca i32, align 4
  store ptr %0, ptr %3, align 8, !tbaa !83
  store i32 %1, ptr %4, align 4, !tbaa !28
  %7 = load ptr, ptr %3, align 8, !tbaa !83
  %8 = load i32, ptr %4, align 4, !tbaa !28
  store i32 %8, ptr %5, align 4, !tbaa !28
  %9 = load i32, ptr %5, align 4
  %10 = atomicrmw volatile add ptr %7, i32 %9 acq_rel, align 4
  store i32 %10, ptr %6, align 4
  ret void
}

; Function Attrs: alwaysinline mustprogress nounwind optsize uwtable
define linkonce_odr void @_ZN9__gnu_cxx19__atomic_add_singleEPii(ptr noundef %0, i32 noundef %1) #5 comdat {
  %3 = alloca ptr, align 8
  %4 = alloca i32, align 4
  store ptr %0, ptr %3, align 8, !tbaa !83
  store i32 %1, ptr %4, align 4, !tbaa !28
  %5 = load i32, ptr %4, align 4, !tbaa !28
  %6 = load ptr, ptr %3, align 8, !tbaa !83
  %7 = load i32, ptr %6, align 4, !tbaa !28
  %8 = add nsw i32 %7, %5
  store i32 %8, ptr %6, align 4, !tbaa !28
  ret void
}

; Function Attrs: alwaysinline mustprogress nounwind optsize uwtable
define linkonce_odr noundef zeroext i1 @_ZN9__gnu_cxx20__is_single_threadedEv() #5 comdat {
  %1 = load i8, ptr @__libc_single_threaded, align 1, !tbaa !44
  %2 = icmp ne i8 %1, 0
  ret i1 %2
}

; Function Attrs: alwaysinline mustprogress optsize uwtable
define linkonce_odr void @_ZN9__gnu_cxx21__atomic_add_dispatchEPii(ptr noundef %0, i32 noundef %1) #3 comdat {
  %3 = alloca ptr, align 8
  %4 = alloca i32, align 4
  store ptr %0, ptr %3, align 8, !tbaa !83
  store i32 %1, ptr %4, align 4, !tbaa !28
  %5 = call noundef zeroext i1 @_ZN9__gnu_cxx20__is_single_threadedEv() #22
  br i1 %5, label %6, label %9

6:                                                ; preds = %2
  %7 = load ptr, ptr %3, align 8, !tbaa !83
  %8 = load i32, ptr %4, align 4, !tbaa !28
  call void @_ZN9__gnu_cxx19__atomic_add_singleEPii(ptr noundef %7, i32 noundef %8) #20
  br label %12

9:                                                ; preds = %2
  %10 = load ptr, ptr %3, align 8, !tbaa !83
  %11 = load i32, ptr %4, align 4, !tbaa !28
  call void @_ZN9__gnu_cxx12__atomic_addEPVii(ptr noundef %10, i32 noundef %11) #20
  br label %12

12:                                               ; preds = %9, %6
  ret void
}

; Function Attrs: noinline noreturn nounwind optsize uwtable
define linkonce_odr hidden void @__clang_call_terminate(ptr noundef %0) #7 comdat {
  %2 = call ptr @__cxa_begin_catch(ptr %0) #21
  call void @_ZSt9terminatev() #23
  unreachable
}

; Function Attrs: mustprogress optsize uwtable
define linkonce_odr void @_ZNSt16_Sp_counted_baseILN9__gnu_cxx12_Lock_policyE2EE15_M_add_ref_copyEv(ptr noundef nonnull align 8 dereferenceable(16) %0) #0 comdat align 2 {
  %2 = alloca ptr, align 8
  store ptr %0, ptr %2, align 8, !tbaa !1079
  %3 = load ptr, ptr %2, align 8
  %4 = getelementptr inbounds nuw %"class.std::_Sp_counted_base", ptr %3, i32 0, i32 1
  call void @_ZN9__gnu_cxx21__atomic_add_dispatchEPii(ptr noundef %4, i32 noundef 1) #20
  ret void
}

; Function Attrs: mustprogress nounwind optsize uwtable
define linkonce_odr void @_ZNSt14__shared_countILN9__gnu_cxx12_Lock_policyE2EEC2ERKS2_(ptr noundef nonnull align 8 dereferenceable(8) %0, ptr noundef nonnull align 8 dereferenceable(8) %1) unnamed_addr #8 comdat align 2 personality ptr @__gxx_personality_v0 {
  %3 = alloca ptr, align 8
  %4 = alloca ptr, align 8
  store ptr %0, ptr %3, align 8, !tbaa !1076
  store ptr %1, ptr %4, align 8, !tbaa !1076
  %5 = load ptr, ptr %3, align 8
  %6 = getelementptr inbounds nuw %"class.std::__shared_count", ptr %5, i32 0, i32 0
  %7 = load ptr, ptr %4, align 8, !tbaa !1076
  %8 = getelementptr inbounds nuw %"class.std::__shared_count", ptr %7, i32 0, i32 0
  %9 = load ptr, ptr %8, align 8, !tbaa !1078
  store ptr %9, ptr %6, align 8, !tbaa !1078
  %10 = getelementptr inbounds nuw %"class.std::__shared_count", ptr %5, i32 0, i32 0
  %11 = load ptr, ptr %10, align 8, !tbaa !1078
  %12 = icmp ne ptr %11, null
  br i1 %12, label %13, label %17

13:                                               ; preds = %2
  %14 = getelementptr inbounds nuw %"class.std::__shared_count", ptr %5, i32 0, i32 0
  %15 = load ptr, ptr %14, align 8, !tbaa !1078
  invoke void @_ZNSt16_Sp_counted_baseILN9__gnu_cxx12_Lock_policyE2EE15_M_add_ref_copyEv(ptr noundef nonnull align 8 dereferenceable(16) %15) #20
          to label %16 unwind label %18

16:                                               ; preds = %13
  br label %17

17:                                               ; preds = %16, %2
  ret void

18:                                               ; preds = %13
  %19 = landingpad { ptr, i32 }
          catch ptr null
  %20 = extractvalue { ptr, i32 } %19, 0
  call void @__clang_call_terminate(ptr %20) #23
  unreachable
}

; Function Attrs: mustprogress nounwind optsize uwtable
define internal void @_ZNSt12__shared_ptrIZL38nanobind_init_test_stl_bind_vector_extRN8nanobind7module_EE2ElLN9__gnu_cxx12_Lock_policyE2EEC2ERKS6_(ptr noundef nonnull align 8 dereferenceable(16) %0, ptr noundef nonnull align 8 dereferenceable(16) %1) unnamed_addr #8 align 2 {
  %3 = alloca ptr, align 8
  %4 = alloca ptr, align 8
  store ptr %0, ptr %3, align 8, !tbaa !1070
  store ptr %1, ptr %4, align 8, !tbaa !1070
  %5 = load ptr, ptr %3, align 8
  %6 = getelementptr inbounds nuw %"class.std::__shared_ptr", ptr %5, i32 0, i32 0
  %7 = load ptr, ptr %4, align 8, !tbaa !1070
  %8 = getelementptr inbounds nuw %"class.std::__shared_ptr", ptr %7, i32 0, i32 0
  %9 = load ptr, ptr %8, align 8, !tbaa !1072
  store ptr %9, ptr %6, align 8, !tbaa !1072
  %10 = getelementptr inbounds nuw %"class.std::__shared_ptr", ptr %5, i32 0, i32 1
  %11 = load ptr, ptr %4, align 8, !tbaa !1070
  %12 = getelementptr inbounds nuw %"class.std::__shared_ptr", ptr %11, i32 0, i32 1
  call void @_ZNSt14__shared_countILN9__gnu_cxx12_Lock_policyE2EEC2ERKS2_(ptr noundef nonnull align 8 dereferenceable(8) %10, ptr noundef nonnull align 8 dereferenceable(8) %12) #22
  ret void
}

; Function Attrs: mustprogress nounwind optsize uwtable
define internal void @_ZNSt10shared_ptrIZL38nanobind_init_test_stl_bind_vector_extRN8nanobind7module_EE2ElEC2ERKS4_(ptr noundef nonnull align 8 dereferenceable(16) %0, ptr noundef nonnull align 8 dereferenceable(16) %1) unnamed_addr #8 align 2 {
  %3 = alloca ptr, align 8
  %4 = alloca ptr, align 8
  store ptr %0, ptr %3, align 8, !tbaa !1058
  store ptr %1, ptr %4, align 8, !tbaa !1058
  %5 = load ptr, ptr %3, align 8
  %6 = load ptr, ptr %4, align 8, !tbaa !1058
  call void @_ZNSt12__shared_ptrIZL38nanobind_init_test_stl_bind_vector_extRN8nanobind7module_EE2ElLN9__gnu_cxx12_Lock_policyE2EEC2ERKS6_(ptr noundef nonnull align 8 dereferenceable(16) %5, ptr noundef nonnull align 8 dereferenceable(16) %6) #22
  ret void
}

; Function Attrs: mustprogress nounwind optsize uwtable
define internal void @_ZN9__gnu_cxx17__normal_iteratorIPSt10shared_ptrIZL38nanobind_init_test_stl_bind_vector_extRN8nanobind7module_EE2ElESt6vectorIS6_SaIS6_EEEC2ERKS7_(ptr noundef nonnull align 8 dereferenceable(8) %0, ptr noundef nonnull align 8 dereferenceable(8) %1) unnamed_addr #8 align 2 {
  %3 = alloca ptr, align 8
  %4 = alloca ptr, align 8
  store ptr %0, ptr %3, align 8, !tbaa !1157
  store ptr %1, ptr %4, align 8, !tbaa !1088
  %5 = load ptr, ptr %3, align 8
  %6 = getelementptr inbounds nuw %"class.__gnu_cxx::__normal_iterator.794", ptr %5, i32 0, i32 0
  %7 = load ptr, ptr %4, align 8, !tbaa !1088
  %8 = load ptr, ptr %7, align 8, !tbaa !1058
  store ptr %8, ptr %6, align 8, !tbaa !1159
  ret void
}

; Function Attrs: mustprogress nounwind optsize uwtable
define internal void @_ZNSt15__new_allocatorISt10shared_ptrIZL38nanobind_init_test_stl_bind_vector_extRN8nanobind7module_EE2ElEE9constructIS5_JRKS5_EEEvPT_DpOT0_(ptr noundef nonnull align 1 dereferenceable(1) %0, ptr noundef %1, ptr noundef nonnull align 8 dereferenceable(16) %2) #8 align 2 {
  %4 = alloca ptr, align 8
  %5 = alloca ptr, align 8
  %6 = alloca ptr, align 8
  store ptr %0, ptr %4, align 8, !tbaa !1056
  store ptr %1, ptr %5, align 8, !tbaa !1058
  store ptr %2, ptr %6, align 8, !tbaa !1058
  %7 = load ptr, ptr %5, align 8, !tbaa !1058
  %8 = load ptr, ptr %6, align 8, !tbaa !1058
  call void @_ZNSt10shared_ptrIZL38nanobind_init_test_stl_bind_vector_extRN8nanobind7module_EE2ElEC2ERKS4_(ptr noundef nonnull align 8 dereferenceable(16) %7, ptr noundef nonnull align 8 dereferenceable(16) %8) #22
  ret void
}

; Function Attrs: mustprogress nounwind optsize uwtable
define internal ptr @_ZNSt6vectorISt10shared_ptrIZL38nanobind_init_test_stl_bind_vector_extRN8nanobind7module_EE2ElESaIS5_EE3endEv(ptr noundef nonnull align 8 dereferenceable(24) %0) #8 align 2 {
  %2 = alloca %"class.__gnu_cxx::__normal_iterator.794", align 8
  %3 = alloca ptr, align 8
  store ptr %0, ptr %3, align 8, !tbaa !1046
  %4 = load ptr, ptr %3, align 8
  %5 = getelementptr inbounds nuw %"struct.std::_Vector_base.759", ptr %4, i32 0, i32 0
  %6 = getelementptr inbounds nuw %"struct.std::_Vector_base<std::shared_ptr<El>, std::allocator<std::shared_ptr<El>>>::_Vector_impl_data", ptr %5, i32 0, i32 1
  call void @_ZN9__gnu_cxx17__normal_iteratorIPSt10shared_ptrIZL38nanobind_init_test_stl_bind_vector_extRN8nanobind7module_EE2ElESt6vectorIS6_SaIS6_EEEC2ERKS7_(ptr noundef nonnull align 8 dereferenceable(8) %2, ptr noundef nonnull align 8 dereferenceable(8) %6) #22
  %7 = getelementptr inbounds nuw %"class.__gnu_cxx::__normal_iterator.794", ptr %2, i32 0, i32 0
  %8 = load ptr, ptr %7, align 8
  ret ptr %8
}

; Function Attrs: mustprogress nounwind optsize uwtable
define internal void @_ZNSt16allocator_traitsISaISt10shared_ptrIZL38nanobind_init_test_stl_bind_vector_extRN8nanobind7module_EE2ElEEE9constructIS5_JRKS5_EEEvRS6_PT_DpOT0_(ptr noundef nonnull align 1 dereferenceable(1) %0, ptr noundef %1, ptr noundef nonnull align 8 dereferenceable(16) %2) #8 align 2 {
  %4 = alloca ptr, align 8
  %5 = alloca ptr, align 8
  %6 = alloca ptr, align 8
  store ptr %0, ptr %4, align 8, !tbaa !1052
  store ptr %1, ptr %5, align 8, !tbaa !1058
  store ptr %2, ptr %6, align 8, !tbaa !1058
  %7 = load ptr, ptr %4, align 8, !tbaa !1052
  %8 = load ptr, ptr %5, align 8, !tbaa !1058
  %9 = load ptr, ptr %6, align 8, !tbaa !1058
  call void @_ZNSt15__new_allocatorISt10shared_ptrIZL38nanobind_init_test_stl_bind_vector_extRN8nanobind7module_EE2ElEE9constructIS5_JRKS5_EEEvPT_DpOT0_(ptr noundef nonnull align 1 dereferenceable(1) %7, ptr noundef %8, ptr noundef nonnull align 8 dereferenceable(16) %9) #22
  ret void
}

; Function Attrs: mustprogress optsize uwtable
define internal void @_ZNSt6vectorISt10shared_ptrIZL38nanobind_init_test_stl_bind_vector_extRN8nanobind7module_EE2ElESaIS5_EE9push_backERKS5_(ptr noundef nonnull align 8 dereferenceable(24) %0, ptr noundef nonnull align 8 dereferenceable(16) %1) #0 align 2 {
  %3 = alloca ptr, align 8
  %4 = alloca ptr, align 8
  %5 = alloca %"class.__gnu_cxx::__normal_iterator.794", align 8
  store ptr %0, ptr %3, align 8, !tbaa !1046
  store ptr %1, ptr %4, align 8, !tbaa !1058
  %6 = load ptr, ptr %3, align 8
  %7 = getelementptr inbounds nuw %"struct.std::_Vector_base.759", ptr %6, i32 0, i32 0
  %8 = getelementptr inbounds nuw %"struct.std::_Vector_base<std::shared_ptr<El>, std::allocator<std::shared_ptr<El>>>::_Vector_impl_data", ptr %7, i32 0, i32 1
  %9 = load ptr, ptr %8, align 8, !tbaa !1051
  %10 = getelementptr inbounds nuw %"struct.std::_Vector_base.759", ptr %6, i32 0, i32 0
  %11 = getelementptr inbounds nuw %"struct.std::_Vector_base<std::shared_ptr<El>, std::allocator<std::shared_ptr<El>>>::_Vector_impl_data", ptr %10, i32 0, i32 2
  %12 = load ptr, ptr %11, align 8, !tbaa !1060
  %13 = icmp ne ptr %9, %12
  br i1 %13, label %14, label %24

14:                                               ; preds = %2
  %15 = getelementptr inbounds nuw %"struct.std::_Vector_base.759", ptr %6, i32 0, i32 0
  %16 = getelementptr inbounds nuw %"struct.std::_Vector_base.759", ptr %6, i32 0, i32 0
  %17 = getelementptr inbounds nuw %"struct.std::_Vector_base<std::shared_ptr<El>, std::allocator<std::shared_ptr<El>>>::_Vector_impl_data", ptr %16, i32 0, i32 1
  %18 = load ptr, ptr %17, align 8, !tbaa !1051
  %19 = load ptr, ptr %4, align 8, !tbaa !1058
  call void @_ZNSt16allocator_traitsISaISt10shared_ptrIZL38nanobind_init_test_stl_bind_vector_extRN8nanobind7module_EE2ElEEE9constructIS5_JRKS5_EEEvRS6_PT_DpOT0_(ptr noundef nonnull align 1 dereferenceable(1) %15, ptr noundef %18, ptr noundef nonnull align 8 dereferenceable(16) %19) #22
  %20 = getelementptr inbounds nuw %"struct.std::_Vector_base.759", ptr %6, i32 0, i32 0
  %21 = getelementptr inbounds nuw %"struct.std::_Vector_base<std::shared_ptr<El>, std::allocator<std::shared_ptr<El>>>::_Vector_impl_data", ptr %20, i32 0, i32 1
  %22 = load ptr, ptr %21, align 8, !tbaa !1051
  %23 = getelementptr inbounds nuw %"class.std::shared_ptr", ptr %22, i32 1
  store ptr %23, ptr %21, align 8, !tbaa !1051
  br label %30

24:                                               ; preds = %2
  %25 = call ptr @_ZNSt6vectorISt10shared_ptrIZL38nanobind_init_test_stl_bind_vector_extRN8nanobind7module_EE2ElESaIS5_EE3endEv(ptr noundef nonnull align 8 dereferenceable(24) %6) #22
  %26 = getelementptr inbounds nuw %"class.__gnu_cxx::__normal_iterator.794", ptr %5, i32 0, i32 0
  store ptr %25, ptr %26, align 8
  %27 = load ptr, ptr %4, align 8, !tbaa !1058
  %28 = getelementptr inbounds nuw %"class.__gnu_cxx::__normal_iterator.794", ptr %5, i32 0, i32 0
  %29 = load ptr, ptr %28, align 8
  call void @_ZNSt6vectorISt10shared_ptrIZL38nanobind_init_test_stl_bind_vector_extRN8nanobind7module_EE2ElESaIS5_EE17_M_realloc_insertIJRKS5_EEEvN9__gnu_cxx17__normal_iteratorIPS5_S7_EEDpOT_(ptr noundef nonnull align 8 dereferenceable(24) %6, ptr %29, ptr noundef nonnull align 8 dereferenceable(16) %27) #20
  br label %30

30:                                               ; preds = %24, %14
  ret void
}