; Function Attrs: mustprogress optsize uwtable
define internal fastcc void @_ZNSt6vectorISt10shared_ptrIZL38nanobind_init_test_stl_bind_vector_extRN8nanobind7module_EE2ElESaIS5_EE9push_backERKS5_(ptr noundef nonnull align 8 captures(none) dereferenceable(24) %0, ptr noundef nonnull readonly align 8 captures(none) dereferenceable(16) %1) unnamed_addr #0 align 2 personality ptr @__gxx_personality_v0 {
  %3 = getelementptr inbounds nuw i8, ptr %0, i64 8
  %4 = load ptr, ptr %3, align 8, !tbaa !424
  %5 = getelementptr inbounds nuw i8, ptr %0, i64 16
  %6 = load ptr, ptr %5, align 8, !tbaa !425
  %.not = icmp eq ptr %4, %6
  br i1 %.not, label %20, label %7

7:                                                ; preds = %2
  %.val3 = load ptr, ptr %1, align 8, !tbaa !428
  %8 = getelementptr inbounds nuw i8, ptr %1, i64 8
  %.val4 = load ptr, ptr %8, align 8, !tbaa !432
  store ptr %.val3, ptr %4, align 8, !tbaa !428
  %9 = getelementptr inbounds nuw i8, ptr %4, i64 8
  store ptr %.val4, ptr %9, align 8, !tbaa !432
  %.not.i.i.i.i.i = icmp eq ptr %.val4, null
  br i1 %.not.i.i.i.i.i, label %_ZNSt16allocator_traitsISaISt10shared_ptrIZL38nanobind_init_test_stl_bind_vector_extRN8nanobind7module_EE2ElEEE9constructIS5_JRKS5_EEEvRS6_PT_DpOT0_.exit, label %10

10:                                               ; preds = %7
  %11 = getelementptr inbounds nuw i8, ptr %.val4, i64 8
  %12 = load i8, ptr @__libc_single_threaded, align 1, !tbaa !34
  %.not.i.i.i.i.i.i = icmp eq i8 %12, 0
  br i1 %.not.i.i.i.i.i.i, label %16, label %13

13:                                               ; preds = %10
  %14 = load i32, ptr %11, align 4, !tbaa !47
  %15 = add nsw i32 %14, 1
  store i32 %15, ptr %11, align 4, !tbaa !47
  br label %_ZNSt16allocator_traitsISaISt10shared_ptrIZL38nanobind_init_test_stl_bind_vector_extRN8nanobind7module_EE2ElEEE9constructIS5_JRKS5_EEEvRS6_PT_DpOT0_.exit

16:                                               ; preds = %10
  %17 = atomicrmw volatile add ptr %11, i32 1 acq_rel, align 4
  %.pre = load ptr, ptr %3, align 8, !tbaa !424
  br label %_ZNSt16allocator_traitsISaISt10shared_ptrIZL38nanobind_init_test_stl_bind_vector_extRN8nanobind7module_EE2ElEEE9constructIS5_JRKS5_EEEvRS6_PT_DpOT0_.exit

_ZNSt16allocator_traitsISaISt10shared_ptrIZL38nanobind_init_test_stl_bind_vector_extRN8nanobind7module_EE2ElEEE9constructIS5_JRKS5_EEEvRS6_PT_DpOT0_.exit: ; preds = %7, %13, %16
  %18 = phi ptr [ %4, %7 ], [ %4, %13 ], [ %.pre, %16 ]
  %19 = getelementptr inbounds nuw i8, ptr %18, i64 16
  store ptr %19, ptr %3, align 8, !tbaa !424
  br label %21

20:                                               ; preds = %2
  tail call fastcc void @_ZNSt6vectorISt10shared_ptrIZL38nanobind_init_test_stl_bind_vector_extRN8nanobind7module_EE2ElESaIS5_EE17_M_realloc_insertIJRKS5_EEEvN9__gnu_cxx17__normal_iteratorIPS5_S7_EEDpOT_(ptr noundef nonnull align 8 dereferenceable(24) %0, ptr %4, ptr noundef nonnull align 8 dereferenceable(16) %1) #25
  br label %21

21:                                               ; preds = %20, %_ZNSt16allocator_traitsISaISt10shared_ptrIZL38nanobind_init_test_stl_bind_vector_extRN8nanobind7module_EE2ElEEE9constructIS5_JRKS5_EEEvRS6_PT_DpOT0_.exit
  ret void
}